target datalayout = "e-m:e-p270:32:32-p271:32:32-p272:64:64-i64:64-i128:128-f80:128-n8:16:32:64-S128"
target triple = "x86_64-pc-linux-gnu"

@.str.183 = private unnamed_addr constant [33 x i8] c"../cpython/Programs/_testembed.c\00", align 1
@.str.222 = private unnamed_addr constant [23 x i8] c"Init allocation error\0A\00", align 1
@__const.test_initconfig_exit.argv = private unnamed_addr constant [2 x ptr] [ptr @.str.228, ptr @.str.268], align 16
@.str.269 = private unnamed_addr constant [5 x i8] c"argv\00", align 1
@.str.270 = private unnamed_addr constant [74 x i8] c"PyInitConfig_SetStrList(config, \22argv\22, Py_ARRAY_LENGTH(argv), argv) == 0\00", align 1
@__PRETTY_FUNCTION__.test_initconfig_exit = private unnamed_addr constant [31 x i8] c"int test_initconfig_exit(void)\00", align 1
@.str.271 = private unnamed_addr constant [11 x i8] c"parse_argv\00", align 1
@.str.272 = private unnamed_addr constant [50 x i8] c"PyInitConfig_SetInt(config, \22parse_argv\22, 1) == 0\00", align 1
@.str.273 = private unnamed_addr constant [40 x i8] c"Py_InitializeFromInitConfig(config) < 0\00", align 1
@.str.274 = private unnamed_addr constant [49 x i8] c"PyInitConfig_GetExitCode(config, &exitcode) == 1\00", align 1
@.str.275 = private unnamed_addr constant [14 x i8] c"exitcode == 0\00", align 1
@.str.276 = private unnamed_addr constant [45 x i8] c"PyInitConfig_GetError(config, &err_msg) == 1\00", align 1
@.str.277 = private unnamed_addr constant [12 x i8] c"exit code 0\00", align 1
@.str.278 = private unnamed_addr constant [36 x i8] c"strcmp(err_msg, \22exit code 0\22) == 0\00", align 1

; Function Attrs: nounwind uwtable
define internal i32 @test_initconfig_exit() #0 {
  %1 = alloca i32, align 4
  %2 = alloca ptr, align 8
  %3 = alloca i32, align 4
  %4 = alloca [2 x ptr], align 16
  %5 = alloca i32, align 4
  %6 = alloca ptr, align 8
  call void @llvm.lifetime.start.p0(i64 8, ptr %2) #11
  %7 = call ptr @PyInitConfig_Create()
  store ptr %7, ptr %2, align 8, !tbaa !75
  %8 = load ptr, ptr %2, align 8, !tbaa !75
  %9 = icmp eq ptr %8, null
  br i1 %9, label %10, label %12

10:                                               ; preds = %0
  %11 = call i32 (ptr, ...) @printf(ptr noundef @.str.222)
  store i32 1, ptr %1, align 4
  store i32 1, ptr %3, align 4
  br label %63

12:                                               ; preds = %0
  call void @llvm.lifetime.start.p0(i64 16, ptr %4) #11
  call void @llvm.memcpy.p0.p0.i64(ptr align 16 %4, ptr align 16 @__const.test_initconfig_exit.argv, i64 16, i1 false)
  %13 = load ptr, ptr %2, align 8, !tbaa !75
  %14 = getelementptr inbounds [2 x ptr], ptr %4, i64 0, i64 0
  %15 = call i32 @PyInitConfig_SetStrList(ptr noundef %13, ptr noundef @.str.269, i64 noundef 2, ptr noundef %14)
  %16 = icmp eq i32 %15, 0
  br i1 %16, label %17, label %18

17:                                               ; preds = %12
  br label %20

18:                                               ; preds = %12
  call void @__assert_fail(ptr noundef @.str.270, ptr noundef @.str.183, i32 noundef 1939, ptr noundef @__PRETTY_FUNCTION__.test_initconfig_exit) #13
  unreachable

19:                                               ; No predecessors!
  br label %20

20:                                               ; preds = %19, %17
  %21 = load ptr, ptr %2, align 8, !tbaa !75
  %22 = call i32 @PyInitConfig_SetInt(ptr noundef %21, ptr noundef @.str.271, i64 noundef 1)
  %23 = icmp eq i32 %22, 0
  br i1 %23, label %24, label %25

24:                                               ; preds = %20
  br label %27

25:                                               ; preds = %20
  call void @__assert_fail(ptr noundef @.str.272, ptr noundef @.str.183, i32 noundef 1941, ptr noundef @__PRETTY_FUNCTION__.test_initconfig_exit) #13
  unreachable

26:                                               ; No predecessors!
  br label %27

27:                                               ; preds = %26, %24
  %28 = load ptr, ptr %2, align 8, !tbaa !75
  %29 = call i32 @Py_InitializeFromInitConfig(ptr noundef %28)
  %30 = icmp slt i32 %29, 0
  br i1 %30, label %31, label %32

31:                                               ; preds = %27
  br label %34

32:                                               ; preds = %27
  call void @__assert_fail(ptr noundef @.str.273, ptr noundef @.str.183, i32 noundef 1943, ptr noundef @__PRETTY_FUNCTION__.test_initconfig_exit) #13
  unreachable

33:                                               ; No predecessors!
  br label %34

34:                                               ; preds = %33, %31
  call void @llvm.lifetime.start.p0(i64 4, ptr %5) #11
  %35 = load ptr, ptr %2, align 8, !tbaa !75
  %36 = call i32 @PyInitConfig_GetExitCode(ptr noundef %35, ptr noundef %5)
  %37 = icmp eq i32 %36, 1
  br i1 %37, label %38, label %39

38:                                               ; preds = %34
  br label %41

39:                                               ; preds = %34
  call void @__assert_fail(ptr noundef @.str.274, ptr noundef @.str.183, i32 noundef 1946, ptr noundef @__PRETTY_FUNCTION__.test_initconfig_exit) #13
  unreachable

40:                                               ; No predecessors!
  br label %41

41:                                               ; preds = %40, %38
  %42 = load i32, ptr %5, align 4, !tbaa !4
  %43 = icmp eq i32 %42, 0
  br i1 %43, label %44, label %45

44:                                               ; preds = %41
  br label %47

45:                                               ; preds = %41
  call void @__assert_fail(ptr noundef @.str.275, ptr noundef @.str.183, i32 noundef 1947, ptr noundef @__PRETTY_FUNCTION__.test_initconfig_exit) #13
  unreachable

46:                                               ; No predecessors!
  br label %47

47:                                               ; preds = %46, %44
  call void @llvm.lifetime.start.p0(i64 8, ptr %6) #11
  %48 = load ptr, ptr %2, align 8, !tbaa !75
  %49 = call i32 @PyInitConfig_GetError(ptr noundef %48, ptr noundef %6)
  %50 = icmp eq i32 %49, 1
  br i1 %50, label %51, label %52

51:                                               ; preds = %47
  br label %54

52:                                               ; preds = %47
  call void @__assert_fail(ptr noundef @.str.276, ptr noundef @.str.183, i32 noundef 1950, ptr noundef @__PRETTY_FUNCTION__.test_initconfig_exit) #13
  unreachable

53:                                               ; No predecessors!
  br label %54

54:                                               ; preds = %53, %51
  %55 = load ptr, ptr %6, align 8, !tbaa !16
  %56 = call i32 @strcmp(ptr noundef %55, ptr noundef @.str.277) #12
  %57 = icmp eq i32 %56, 0
  br i1 %57, label %58, label %59

58:                                               ; preds = %54
  br label %61

59:                                               ; preds = %54
  call void @__assert_fail(ptr noundef @.str.278, ptr noundef @.str.183, i32 noundef 1951, ptr noundef @__PRETTY_FUNCTION__.test_initconfig_exit) #13
  unreachable

60:                                               ; No predecessors!
  br label %61

61:                                               ; preds = %60, %58
  %62 = load ptr, ptr %2, align 8, !tbaa !75
  call void @PyInitConfig_Free(ptr noundef %62)
  store i32 0, ptr %1, align 4
  store i32 1, ptr %3, align 4
  call void @llvm.lifetime.end.p0(i64 8, ptr %6) #11
  call void @llvm.lifetime.end.p0(i64 4, ptr %5) #11
  call void @llvm.lifetime.end.p0(i64 16, ptr %4) #11
  br label %63

63:                                               ; preds = %61, %10
  call void @llvm.lifetime.end.p0(i64 8, ptr %2) #11
  %64 = load i32, ptr %1, align 4
  ret i32 %64
}