; Function Attrs: nounwind uwtable
define internal range(i32 0, 2) i32 @test_initconfig_exit() #0 {
  %1 = alloca [2 x ptr], align 16
  %2 = alloca i32, align 4
  %3 = alloca ptr, align 8
  %4 = tail call ptr @PyInitConfig_Create() #20
  %5 = icmp eq ptr %4, null
  br i1 %5, label %6, label %7

6:                                                ; preds = %0
  %puts = tail call i32 @puts(ptr nonnull dereferenceable(1) @str.24)
  br label %37

7:                                                ; preds = %0
  call void @llvm.lifetime.start.p0(i64 16, ptr nonnull %1) #20
  call void @llvm.memcpy.p0.p0.i64(ptr noundef nonnull align 16 dereferenceable(16) %1, ptr noundef nonnull align 16 dereferenceable(16) @__const.test_initconfig_exit.argv, i64 16, i1 false)
  %8 = call i32 @PyInitConfig_SetStrList(ptr noundef nonnull %4, ptr noundef nonnull @.str.269, i64 noundef 2, ptr noundef nonnull %1) #20
  %9 = icmp eq i32 %8, 0
  br i1 %9, label %11, label %10

10:                                               ; preds = %7
  call void @__assert_fail(ptr noundef nonnull @.str.270, ptr noundef nonnull @.str.183, i32 noundef 1939, ptr noundef nonnull @__PRETTY_FUNCTION__.test_initconfig_exit) #24
  unreachable

11:                                               ; preds = %7
  %12 = call i32 @PyInitConfig_SetInt(ptr noundef nonnull %4, ptr noundef nonnull @.str.271, i64 noundef 1) #20
  %13 = icmp eq i32 %12, 0
  br i1 %13, label %15, label %14

14:                                               ; preds = %11
  call void @__assert_fail(ptr noundef nonnull @.str.272, ptr noundef nonnull @.str.183, i32 noundef 1941, ptr noundef nonnull @__PRETTY_FUNCTION__.test_initconfig_exit) #24
  unreachable

15:                                               ; preds = %11
  %16 = call i32 @Py_InitializeFromInitConfig(ptr noundef nonnull %4) #20
  %17 = icmp slt i32 %16, 0
  br i1 %17, label %19, label %18

18:                                               ; preds = %15
  call void @__assert_fail(ptr noundef nonnull @.str.273, ptr noundef nonnull @.str.183, i32 noundef 1943, ptr noundef nonnull @__PRETTY_FUNCTION__.test_initconfig_exit) #24
  unreachable

19:                                               ; preds = %15
  call void @llvm.lifetime.start.p0(i64 4, ptr nonnull %2) #20
  %20 = call i32 @PyInitConfig_GetExitCode(ptr noundef nonnull %4, ptr noundef nonnull %2) #20
  %21 = icmp eq i32 %20, 1
  br i1 %21, label %23, label %22

22:                                               ; preds = %19
  call void @__assert_fail(ptr noundef nonnull @.str.274, ptr noundef nonnull @.str.183, i32 noundef 1946, ptr noundef nonnull @__PRETTY_FUNCTION__.test_initconfig_exit) #24
  unreachable

23:                                               ; preds = %19
  %24 = load i32, ptr %2, align 4, !tbaa !4
  %25 = icmp eq i32 %24, 0
  br i1 %25, label %27, label %26

26:                                               ; preds = %23
  call void @__assert_fail(ptr noundef nonnull @.str.275, ptr noundef nonnull @.str.183, i32 noundef 1947, ptr noundef nonnull @__PRETTY_FUNCTION__.test_initconfig_exit) #24
  unreachable

27:                                               ; preds = %23
  call void @llvm.lifetime.start.p0(i64 8, ptr nonnull %3) #20
  %28 = call i32 @PyInitConfig_GetError(ptr noundef nonnull %4, ptr noundef nonnull %3) #20
  %29 = icmp eq i32 %28, 1
  br i1 %29, label %31, label %30

30:                                               ; preds = %27
  call void @__assert_fail(ptr noundef nonnull @.str.276, ptr noundef nonnull @.str.183, i32 noundef 1950, ptr noundef nonnull @__PRETTY_FUNCTION__.test_initconfig_exit) #24
  unreachable

31:                                               ; preds = %27
  %32 = load ptr, ptr %3, align 8, !tbaa !11
  %33 = call i32 @strcmp(ptr noundef nonnull dereferenceable(1) %32, ptr noundef nonnull dereferenceable(12) @.str.277) #19
  %34 = icmp eq i32 %33, 0
  br i1 %34, label %36, label %35

35:                                               ; preds = %31
  call void @__assert_fail(ptr noundef nonnull @.str.278, ptr noundef nonnull @.str.183, i32 noundef 1951, ptr noundef nonnull @__PRETTY_FUNCTION__.test_initconfig_exit) #24
  unreachable

36:                                               ; preds = %31
  call void @PyInitConfig_Free(ptr noundef nonnull %4) #20
  call void @llvm.lifetime.end.p0(i64 8, ptr nonnull %3) #20
  call void @llvm.lifetime.end.p0(i64 4, ptr nonnull %2) #20
  call void @llvm.lifetime.end.p0(i64 16, ptr nonnull %1) #20
  br label %37

37:                                               ; preds = %36, %6
  %.0 = phi i32 [ 1, %6 ], [ 0, %36 ]
  ret i32 %.0
}